; ModuleID = '45/2814.c'
source_filename = "45/2814.c"
target datalayout = "e-m:e-p270:32:32-p271:32:32-p272:64:64-i64:64-f80:128-n8:16:32:64-S128"
target triple = "x86_64-pc-linux-gnu"

@.str = private unnamed_addr constant [3 x i8] c"%s\00", align 1
@.str.1 = private unnamed_addr constant [3 x i8] c"%d\00", align 1

; Function Attrs: noinline nounwind uwtable
define dso_local i32 @main() #0 {
  %1 = alloca i32, align 4
  %2 = alloca i32, align 4
  %3 = alloca i32, align 4
  %4 = alloca i32, align 4
  %5 = alloca i32, align 4
  %6 = alloca i32, align 4
  %7 = alloca i32, align 4
  %8 = alloca i32, align 4
  %9 = alloca [50 x i8], align 16
  %10 = alloca [50 x i8], align 16
  %11 = alloca i8, align 1
  store i32 0, i32* %1, align 4
  store i32 0, i32* %8, align 4
  %12 = getelementptr inbounds [50 x i8], [50 x i8]* %9, i64 0, i64 0
  %13 = call i32 (i8*, ...) @__isoc99_scanf(i8* getelementptr inbounds ([3 x i8], [3 x i8]* @.str, i64 0, i64 0), i8* %12)
  %14 = getelementptr inbounds [50 x i8], [50 x i8]* %10, i64 0, i64 0
  %15 = call i32 (i8*, ...) @__isoc99_scanf(i8* getelementptr inbounds ([3 x i8], [3 x i8]* @.str, i64 0, i64 0), i8* %14)
  %16 = getelementptr inbounds [50 x i8], [50 x i8]* %9, i64 0, i64 0
  %17 = call i64 @strlen(i8* %16) #3
  %18 = trunc i64 %17 to i32
  store i32 %18, i32* %3, align 4
  %19 = getelementptr inbounds [50 x i8], [50 x i8]* %10, i64 0, i64 0
  %20 = call i64 @strlen(i8* %19) #3
  %21 = trunc i64 %20 to i32
  store i32 %21, i32* %4, align 4
  store i32 0, i32* %5, align 4
  br label %22

22:                                               ; preds = %74, %0
  %23 = load i32, i32* %5, align 4
  %24 = icmp slt i32 %23, 50
  br i1 %24, label %25, label %77

25:                                               ; preds = %22
  %26 = getelementptr inbounds [50 x i8], [50 x i8]* %9, i64 0, i64 0
  %27 = load i8, i8* %26, align 16
  %28 = sext i8 %27 to i32
  %29 = load i32, i32* %5, align 4
  %30 = sext i32 %29 to i64
  %31 = getelementptr inbounds [50 x i8], [50 x i8]* %10, i64 0, i64 %30
  %32 = load i8, i8* %31, align 1
  %33 = sext i8 %32 to i32
  %34 = icmp eq i32 %28, %33
  br i1 %34, label %35, label %73

35:                                               ; preds = %25
  store i32 0, i32* %6, align 4
  br label %36

36:                                               ; preds = %63, %35
  %37 = load i32, i32* %6, align 4
  %38 = load i32, i32* %3, align 4
  %39 = icmp sle i32 %37, %38
  br i1 %39, label %40, label %66

40:                                               ; preds = %36
  %41 = load i32, i32* %6, align 4
  %42 = sext i32 %41 to i64
  %43 = getelementptr inbounds [50 x i8], [50 x i8]* %9, i64 0, i64 %42
  %44 = load i8, i8* %43, align 1
  %45 = sext i8 %44 to i32
  %46 = load i32, i32* %5, align 4
  %47 = load i32, i32* %6, align 4
  %48 = add nsw i32 %46, %47
  %49 = sext i32 %48 to i64
  %50 = getelementptr inbounds [50 x i8], [50 x i8]* %10, i64 0, i64 %49
  %51 = load i8, i8* %50, align 1
  %52 = sext i8 %51 to i32
  %53 = icmp ne i32 %45, %52
  br i1 %53, label %54, label %55

54:                                               ; preds = %40
  br label %66

55:                                               ; preds = %40
  %56 = load i32, i32* %6, align 4
  %57 = load i32, i32* %3, align 4
  %58 = sub nsw i32 %57, 1
  %59 = icmp eq i32 %56, %58
  br i1 %59, label %60, label %62

60:                                               ; preds = %55
  %61 = load i32, i32* %5, align 4
  store i32 %61, i32* %8, align 4
  br label %66

62:                                               ; preds = %55
  br label %63

63:                                               ; preds = %62
  %64 = load i32, i32* %6, align 4
  %65 = add nsw i32 %64, 1
  store i32 %65, i32* %6, align 4
  br label %36

66:                                               ; preds = %60, %54, %36
  %67 = load i32, i32* %8, align 4
  %68 = icmp ne i32 %67, 0
  br i1 %68, label %69, label %72

69:                                               ; preds = %66
  %70 = load i32, i32* %8, align 4
  %71 = call i32 (i8*, ...) @printf(i8* getelementptr inbounds ([3 x i8], [3 x i8]* @.str.1, i64 0, i64 0), i32 %70)
  br label %77

72:                                               ; preds = %66
  br label %73

73:                                               ; preds = %72, %25
  br label %74

74:                                               ; preds = %73
  %75 = load i32, i32* %5, align 4
  %76 = add nsw i32 %75, 1
  store i32 %76, i32* %5, align 4
  br label %22

77:                                               ; preds = %69, %22
  ret i32 0
}

declare dso_local i32 @__isoc99_scanf(i8*, ...) #1

; Function Attrs: nounwind readonly
declare dso_local i64 @strlen(i8*) #2

declare dso_local i32 @printf(i8*, ...) #1


!llvm.module.flags = !{!0}
!llvm.ident = !{!1}

!0 = !{i32 1, !"wchar_size", i32 4}
!1 = !{!"clang version 10.0.0-4ubuntu1 "}
